; ModuleID = 'bench/cmake/original/cm_codecvt.cxx.ll'
source_filename = "bench/cmake/original/cm_codecvt.cxx.ll"
target datalayout = "e-m:e-p270:32:32-p271:32:32-p272:64:64-i64:64-i128:128-f80:128-n8:16:32:64-S128"
target triple = "x86_64-pc-linux-gnu"

@_ZTV7codecvt = dso_local unnamed_addr constant { [11 x ptr] } { [11 x ptr] [ptr null, ptr @_ZTI7codecvt, ptr @_ZN7codecvtD2Ev, ptr @_ZN7codecvtD0Ev, ptr @_ZNK7codecvt6do_outER11__mbstate_tPKcS3_RS3_PcS5_RS5_, ptr @_ZNK7codecvt10do_unshiftER11__mbstate_tPcS2_RS2_, ptr @_ZNKSt7codecvtIcc11__mbstate_tE5do_inERS0_PKcS4_RS4_PcS6_RS6_, ptr @_ZNK7codecvt11do_encodingEv, ptr @_ZNK7codecvt16do_always_noconvEv, ptr @_ZNKSt7codecvtIcc11__mbstate_tE9do_lengthERS0_PKcS4_m, ptr @_ZNK7codecvt13do_max_lengthEv] }, align 8
@_ZTVN10__cxxabiv120__si_class_type_infoE = external global [0 x ptr]
@_ZTS7codecvt = dso_local constant [9 x i8] c"7codecvt\00", align 1
@_ZTISt7codecvtIcc11__mbstate_tE = external constant ptr
@_ZTI7codecvt = dso_local constant { ptr, ptr, ptr } { ptr getelementptr inbounds (ptr, ptr @_ZTVN10__cxxabiv120__si_class_type_infoE, i64 2), ptr @_ZTS7codecvt, ptr @_ZTISt7codecvtIcc11__mbstate_tE }, align 8

@_ZN7codecvtC1E16codecvt_Encoding = dso_local unnamed_addr alias void (ptr, i32), ptr @_ZN7codecvtC2E16codecvt_Encoding
@_ZN7codecvtD1Ev = dso_local unnamed_addr alias void (ptr), ptr @_ZN7codecvtD2Ev

; Function Attrs: mustprogress uwtable
define dso_local void @_ZN7codecvtC2E16codecvt_Encoding(ptr noundef nonnull align 8 dereferenceable(25) %0, i32 %1) unnamed_addr #0 align 2 {
  tail call void @_ZNSt7codecvtIcc11__mbstate_tEC2Em(ptr noundef nonnull align 8 dereferenceable(24) %0, i64 noundef 0)
  store ptr getelementptr inbounds ({ [11 x ptr] }, ptr @_ZTV7codecvt, i64 0, i32 0, i64 2), ptr %0, align 8
  %3 = getelementptr inbounds i8, ptr %0, i64 24
  store i8 1, ptr %3, align 8
  ret void
}

declare void @_ZNSt7codecvtIcc11__mbstate_tEC2Em(ptr noundef nonnull align 8 dereferenceable(24), i64 noundef) unnamed_addr #1

; Function Attrs: mustprogress nounwind uwtable
define dso_local void @_ZN7codecvtD2Ev(ptr noundef nonnull align 8 dereferenceable(25) %0) unnamed_addr #2 align 2 {
  tail call void @_ZNSt7codecvtIcc11__mbstate_tED2Ev(ptr noundef nonnull align 8 dereferenceable(24) %0) #9
  ret void
}

; Function Attrs: nounwind
declare void @_ZNSt7codecvtIcc11__mbstate_tED2Ev(ptr noundef nonnull align 8 dereferenceable(24)) unnamed_addr #3

; Function Attrs: mustprogress nounwind uwtable
define dso_local void @_ZN7codecvtD0Ev(ptr noundef nonnull align 8 dereferenceable(25) %0) unnamed_addr #2 align 2 {
  tail call void @_ZNSt7codecvtIcc11__mbstate_tED2Ev(ptr noundef nonnull align 8 dereferenceable(24) %0) #9
  tail call void @_ZdlPv(ptr noundef nonnull %0) #10
  ret void
}

; Function Attrs: nobuiltin nounwind
declare void @_ZdlPv(ptr noundef) local_unnamed_addr #4

; Function Attrs: mustprogress nofree norecurse nosync nounwind willreturn memory(argmem: read) uwtable
define dso_local noundef zeroext i1 @_ZNK7codecvt16do_always_noconvEv(ptr nocapture noundef nonnull readonly align 8 dereferenceable(25) %0) unnamed_addr #5 align 2 {
  %2 = getelementptr inbounds i8, ptr %0, i64 24
  %3 = load i8, ptr %2, align 8
  %4 = and i8 %3, 1
  %5 = icmp ne i8 %4, 0
  ret i1 %5
}

; Function Attrs: mustprogress nofree norecurse nosync nounwind willreturn memory(argmem: write) uwtable
define dso_local noundef i32 @_ZNK7codecvt6do_outER11__mbstate_tPKcS3_RS3_PcS5_RS5_(ptr nocapture nonnull readnone align 8 %0, ptr nocapture nonnull readnone align 4 %1, ptr noundef %2, ptr nocapture readnone %3, ptr nocapture noundef nonnull writeonly align 8 dereferenceable(8) %4, ptr noundef %5, ptr nocapture readnone %6, ptr nocapture noundef nonnull writeonly align 8 dereferenceable(8) %7) unnamed_addr #6 align 2 {
  store ptr %2, ptr %4, align 8
  store ptr %5, ptr %7, align 8
  ret i32 3
}

; Function Attrs: mustprogress nofree norecurse nosync nounwind willreturn memory(argmem: readwrite) uwtable
define dso_local noundef i32 @_ZNK7codecvt10do_unshiftER11__mbstate_tPcS2_RS2_(ptr nocapture noundef nonnull readonly align 8 dereferenceable(25) %0, ptr nocapture nonnull readnone align 4 %1, ptr noundef %2, ptr nocapture readnone %3, ptr nocapture noundef nonnull writeonly align 8 dereferenceable(8) %4) unnamed_addr #7 align 2 {
  store ptr %2, ptr %4, align 8
  %6 = getelementptr inbounds i8, ptr %0, i64 24
  %7 = load i8, ptr %6, align 8
  %8 = and i8 %7, 1
  %.not = icmp eq i8 %8, 0
  %. = select i1 %.not, i32 0, i32 3
  ret i32 %.
}

; Function Attrs: mustprogress nofree norecurse nosync nounwind willreturn memory(none) uwtable
define dso_local noundef i32 @_ZNK7codecvt13do_max_lengthEv(ptr nocapture nonnull readnone align 8 %0) unnamed_addr #8 align 2 {
  ret i32 4
}

; Function Attrs: mustprogress nofree norecurse nosync nounwind willreturn memory(none) uwtable
define dso_local noundef i32 @_ZNK7codecvt11do_encodingEv(ptr nocapture nonnull readnone align 8 %0) unnamed_addr #8 align 2 {
  ret i32 0
}

declare noundef i32 @_ZNKSt7codecvtIcc11__mbstate_tE5do_inERS0_PKcS4_RS4_PcS6_RS6_(ptr noundef nonnull align 8 dereferenceable(24), ptr noundef nonnull align 4 dereferenceable(8), ptr noundef, ptr noundef, ptr noundef nonnull align 8 dereferenceable(8), ptr noundef, ptr noundef, ptr noundef nonnull align 8 dereferenceable(8)) unnamed_addr #1

declare noundef i32 @_ZNKSt7codecvtIcc11__mbstate_tE9do_lengthERS0_PKcS4_m(ptr noundef nonnull align 8 dereferenceable(24), ptr noundef nonnull align 4 dereferenceable(8), ptr noundef, ptr noundef, i64 noundef) unnamed_addr #1


!llvm.module.flags = !{!0, !1, !2, !3, !4}

!0 = !{i32 1, !"wchar_size", i32 4}
!1 = !{i32 8, !"PIC Level", i32 2}
!2 = !{i32 7, !"PIE Level", i32 2}
!3 = !{i32 7, !"uwtable", i32 2}
!4 = !{i32 7, !"frame-pointer", i32 2}
